target datalayout = "e-m:e-p270:32:32-p271:32:32-p272:64:64-i64:64-i128:128-f80:128-n8:16:32:64-S128"
target triple = "x86_64-pc-linux-gnu"

%struct._object = type { %union.anon, ptr }
%union.anon = type { i64 }
%struct._hist_entry = type { ptr, ptr, ptr }
%struct._hist_state = type { ptr, i32, i32, i32, i32 }

@using_libedit_emulation = internal global i32 0, align 4
@_Py_NoneStruct = external global %struct._object, align 8
@.str.34 = private unnamed_addr constant [16 x i8] c"surrogateescape\00", align 1
@libedit_history_start = internal global i8 0, align 1

; Function Attrs: nounwind uwtable
define internal ptr @decode(ptr noundef %0) #0 {
  %2 = alloca ptr, align 8
  store ptr %0, ptr %2, align 8, !tbaa !3
  %3 = load ptr, ptr %2, align 8, !tbaa !3
  %4 = call ptr @PyUnicode_DecodeLocale(ptr noundef %3, ptr noundef @.str.34)
  ret ptr %4
}

; Function Attrs: nounwind uwtable
define internal i32 @_py_get_history_length() #0 {
  %1 = alloca ptr, align 8
  %2 = alloca i32, align 4
  call void @llvm.lifetime.start.p0(i64 8, ptr %1) #10
  %3 = call ptr @history_get_history_state()
  store ptr %3, ptr %1, align 8, !tbaa !40
  call void @llvm.lifetime.start.p0(i64 4, ptr %2) #10
  %4 = load ptr, ptr %1, align 8, !tbaa !40
  %5 = getelementptr inbounds nuw %struct._hist_state, ptr %4, i32 0, i32 2
  %6 = load i32, ptr %5, align 4, !tbaa !42
  store i32 %6, ptr %2, align 4, !tbaa !8
  %7 = load ptr, ptr %1, align 8, !tbaa !40
  call void @free(ptr noundef %7) #10
  %8 = load i32, ptr %2, align 4, !tbaa !8
  call void @llvm.lifetime.end.p0(i64 4, ptr %2) #10
  call void @llvm.lifetime.end.p0(i64 8, ptr %1) #10
  ret i32 %8
}

; Function Attrs: nounwind uwtable
define internal ptr @readline_get_history_item_impl(ptr noundef %0, i32 noundef %1) #0 {
  %3 = alloca ptr, align 8
  %4 = alloca ptr, align 8
  %5 = alloca i32, align 4
  %6 = alloca ptr, align 8
  %7 = alloca i32, align 4
  %8 = alloca i32, align 4
  store ptr %0, ptr %4, align 8, !tbaa !19
  store i32 %1, ptr %5, align 4, !tbaa !8
  call void @llvm.lifetime.start.p0(i64 8, ptr %6) #10
  %9 = load i32, ptr @using_libedit_emulation, align 4, !tbaa !8
  %10 = icmp ne i32 %9, 0
  br i1 %10, label %11, label %35

11:                                               ; preds = %2
  call void @llvm.lifetime.start.p0(i64 4, ptr %7) #10
  %12 = call i32 @_py_get_history_length()
  store i32 %12, ptr %7, align 4, !tbaa !8
  %13 = load i32, ptr %5, align 4, !tbaa !8
  %14 = sub i32 %13, 1
  %15 = load i8, ptr @libedit_history_start, align 1, !tbaa !23
  %16 = sext i8 %15 to i32
  %17 = add i32 %14, %16
  store i32 %17, ptr %5, align 4, !tbaa !8
  %18 = load i32, ptr %5, align 4, !tbaa !8
  %19 = load i8, ptr @libedit_history_start, align 1, !tbaa !23
  %20 = sext i8 %19 to i32
  %21 = add i32 0, %20
  %22 = icmp slt i32 %18, %21
  br i1 %22, label %30, label %23

23:                                               ; preds = %11
  %24 = load i32, ptr %5, align 4, !tbaa !8
  %25 = load i32, ptr %7, align 4, !tbaa !8
  %26 = load i8, ptr @libedit_history_start, align 1, !tbaa !23
  %27 = sext i8 %26 to i32
  %28 = add i32 %25, %27
  %29 = icmp sge i32 %24, %28
  br i1 %29, label %30, label %31

30:                                               ; preds = %23, %11
  store ptr @_Py_NoneStruct, ptr %3, align 8
  store i32 1, ptr %8, align 4
  br label %32

31:                                               ; preds = %23
  store i32 0, ptr %8, align 4
  br label %32

32:                                               ; preds = %31, %30
  call void @llvm.lifetime.end.p0(i64 4, ptr %7) #10
  %33 = load i32, ptr %8, align 4
  switch i32 %33, label %45 [
    i32 0, label %34
  ]

34:                                               ; preds = %32
  br label %35

35:                                               ; preds = %34, %2
  %36 = load i32, ptr %5, align 4, !tbaa !8
  %37 = call ptr @history_get(i32 noundef %36)
  store ptr %37, ptr %6, align 8, !tbaa !25
  %38 = icmp ne ptr %37, null
  br i1 %38, label %39, label %44

39:                                               ; preds = %35
  %40 = load ptr, ptr %6, align 8, !tbaa !25
  %41 = getelementptr inbounds nuw %struct._hist_entry, ptr %40, i32 0, i32 0
  %42 = load ptr, ptr %41, align 8, !tbaa !27
  %43 = call ptr @decode(ptr noundef %42)
  store ptr %43, ptr %3, align 8
  store i32 1, ptr %8, align 4
  br label %45

44:                                               ; preds = %35
  store ptr @_Py_NoneStruct, ptr %3, align 8
  store i32 1, ptr %8, align 4
  br label %45

45:                                               ; preds = %44, %39, %32
  call void @llvm.lifetime.end.p0(i64 8, ptr %6) #10
  %46 = load ptr, ptr %3, align 8
  ret ptr %46
}

; Function Attrs: nounwind uwtable
define internal ptr @readline_get_history_item(ptr noundef %0, ptr noundef %1) #0 {
  %3 = alloca ptr, align 8
  %4 = alloca ptr, align 8
  %5 = alloca ptr, align 8
  %6 = alloca i32, align 4
  store ptr %0, ptr %3, align 8, !tbaa !19
  store ptr %1, ptr %4, align 8, !tbaa !19
  call void @llvm.lifetime.start.p0(i64 8, ptr %5) #10
  store ptr null, ptr %5, align 8, !tbaa !19
  call void @llvm.lifetime.start.p0(i64 4, ptr %6) #10
  %7 = load ptr, ptr %4, align 8, !tbaa !19
  %8 = call i32 @PyLong_AsInt(ptr noundef %7)
  store i32 %8, ptr %6, align 4, !tbaa !8
  %9 = load i32, ptr %6, align 4, !tbaa !8
  %10 = icmp eq i32 %9, -1
  br i1 %10, label %11, label %15

11:                                               ; preds = %2
  %12 = call ptr @PyErr_Occurred()
  %13 = icmp ne ptr %12, null
  br i1 %13, label %14, label %15

14:                                               ; preds = %11
  br label %19

15:                                               ; preds = %11, %2
  %16 = load ptr, ptr %3, align 8, !tbaa !19
  %17 = load i32, ptr %6, align 4, !tbaa !8
  %18 = call ptr @readline_get_history_item_impl(ptr noundef %16, i32 noundef %17)
  store ptr %18, ptr %5, align 8, !tbaa !19
  br label %19

19:                                               ; preds = %15, %14
  %20 = load ptr, ptr %5, align 8, !tbaa !19
  call void @llvm.lifetime.end.p0(i64 4, ptr %6) #10
  call void @llvm.lifetime.end.p0(i64 8, ptr %5) #10
  ret ptr %20
}