; Function Attrs: nounwind uwtable
define internal ptr @readline_get_history_item(ptr readnone captures(none) %0, ptr noundef %1) #0 {
  %3 = tail call i32 @PyLong_AsInt(ptr noundef %1) #14
  %4 = icmp eq i32 %3, -1
  br i1 %4, label %18, label %.split

.split:                                           ; preds = %2
  %.b.i = load i1, ptr @using_libedit_emulation, align 4
  br i1 %.b.i, label %5, label %.critedge.i

5:                                                ; preds = %.split
  %6 = tail call ptr @history_get_history_state() #14
  %7 = getelementptr inbounds nuw i8, ptr %6, i64 12
  %8 = load i32, ptr %7, align 4, !tbaa !34
  tail call void @free(ptr noundef %6) #14
  %9 = add i32 %3, -1
  %.b12.i = load i1, ptr @libedit_history_start, align 1
  %10 = zext i1 %.b12.i to i32
  %11 = add i32 %9, %10
  %12 = icmp sge i32 %11, %10
  %13 = add i32 %8, %10
  %.not.i = icmp slt i32 %11, %13
  %or.cond.i = select i1 %12, i1 %.not.i, i1 false
  br i1 %or.cond.i, label %.critedge.i, label %readline_get_history_item_impl.exit

.critedge.i:                                      ; preds = %5, %.split
  %.08.i = phi i32 [ %3, %.split ], [ %11, %5 ]
  %14 = tail call ptr @history_get(i32 noundef %.08.i) #14
  %.not13.i = icmp eq ptr %14, null
  br i1 %.not13.i, label %readline_get_history_item_impl.exit, label %15

15:                                               ; preds = %.critedge.i
  %16 = load ptr, ptr %14, align 8, !tbaa !20
  %17 = tail call ptr @PyUnicode_DecodeLocale(ptr noundef %16, ptr noundef nonnull @.str.34) #14
  br label %readline_get_history_item_impl.exit

18:                                               ; preds = %2
  %19 = tail call ptr @PyErr_Occurred() #14
  %.not = icmp eq ptr %19, null
  br i1 %.not, label %.split4, label %readline_get_history_item_impl.exit

.split4:                                          ; preds = %18
  %.b.i6 = load i1, ptr @using_libedit_emulation, align 4
  br i1 %.b.i6, label %20, label %.critedge.i7

20:                                               ; preds = %.split4
  %21 = tail call ptr @history_get_history_state() #14
  tail call void @free(ptr noundef %21) #14
  br label %readline_get_history_item_impl.exit

.critedge.i7:                                     ; preds = %.split4
  %22 = tail call ptr @history_get(i32 noundef -1) #14
  %.not13.i9 = icmp eq ptr %22, null
  br i1 %.not13.i9, label %readline_get_history_item_impl.exit, label %23

23:                                               ; preds = %.critedge.i7
  %24 = load ptr, ptr %22, align 8, !tbaa !20
  %25 = tail call ptr @PyUnicode_DecodeLocale(ptr noundef %24, ptr noundef nonnull @.str.34) #14
  br label %readline_get_history_item_impl.exit

readline_get_history_item_impl.exit:              ; preds = %20, %23, %.critedge.i7, %15, %.critedge.i, %5, %18
  %.0 = phi ptr [ null, %18 ], [ %17, %15 ], [ @_Py_NoneStruct, %5 ], [ @_Py_NoneStruct, %.critedge.i ], [ %25, %23 ], [ @_Py_NoneStruct, %20 ], [ @_Py_NoneStruct, %.critedge.i7 ]
  ret ptr %.0
}